target datalayout = "e-m:e-p270:32:32-p271:32:32-p272:64:64-i64:64-i128:128-f80:128-n8:16:32:64-S128"
target triple = "x86_64-pc-linux-gnu"

%struct.testdsa_st = type { ptr, ptr, ptr, ptr, ptr, i32, i32, i32, i32, i32 }

@dsa512_priv = internal global [20 x i8] c"e\E5\C78`$\B5\89\D4\9C\EBL\9C\1Dz\22\BD\D1\C2\D2", align 16
@dsa512_pub = internal global [65 x i8] c"\00\95\A7\0D\EC\93h\BA_\F7_\07\F2;\ADk\01\DC\BE\EC\DE\04z:'\B3\ECI\FD\08C=~\A8,^{\BB\FC\F4n\EBl\B0n\F8\02\12\8C8]\83V}\EES\05>$\84\BE\BA\0Ak\C8", align 16
@dsa512_p = internal global [64 x i8] c"\9D\1Bi\8E&\DB\F2+\11p\19\86\F6\19\C8\F8\19\F2\18S\94F\06\D0bP3K\02<R0\03\8B;\F9_\D1$\06O{L\BA\AA@\9B\FD\96\E473\BB-Z\D7Z\11@f\A2v}1", align 16
@dsa512_g = internal global [64 x i8] c"\83>\88\E5\C5\89s\CE;l\01I\BF\B3\C7\9F\0A\EAD\91\E50\AA\D9\BE[_\B7\10\D7\89\B7\8Et\FB\CF)\1E\EB\A8,TQ\B8\10\DE\A0\CE/\CC$k\90w\DE\A2h\A6R\12\A2\03\9D ", align 16
@dsa512_q = internal global [20 x i8] c"\FBS\EFP\B4@\921V\86Sz\E8\8B\22\9AI\FBq\8F", align 16
@dsa1024_priv = internal global [20 x i8] c"}!\DA\BBb\15G6\07g\12\E8\8C\AA\1C\CD8\12a\18", align 16
@dsa1024_q = internal global [20 x i8] c"\F7\071\ED\FAl\06\03\D5\85\8A\1C\AC\9Ce\E7Pfeo", align 16
@dsa2048_priv = internal global [20 x i8] c"2g\92\F6\C4\E2\E2\E8\A0\8BkE\0C\8Av\B0\EE\CF\91\A7", align 16
@dsa2048_q = internal global [20 x i8] c"\97\E73M\D3\94>\0B\DBbt\C6\A1\08\DD\19\A3u\17\1B", align 16
@.str = private unnamed_addr constant [4 x i8] c"DSA\00", align 1
@.str.1 = private unnamed_addr constant [2 x i8] c"p\00", align 1
@.str.2 = private unnamed_addr constant [2 x i8] c"q\00", align 1
@.str.3 = private unnamed_addr constant [2 x i8] c"g\00", align 1
@.str.4 = private unnamed_addr constant [5 x i8] c"priv\00", align 1
@.str.5 = private unnamed_addr constant [4 x i8] c"pub\00", align 1

; Function Attrs: nounwind uwtable
define dso_local ptr @get_dsa(i32 noundef %0) #0 {
  %2 = alloca ptr, align 8
  %3 = alloca i32, align 4
  %4 = alloca ptr, align 8
  %5 = alloca ptr, align 8
  %6 = alloca ptr, align 8
  %7 = alloca ptr, align 8
  %8 = alloca ptr, align 8
  %9 = alloca ptr, align 8
  %10 = alloca ptr, align 8
  %11 = alloca %struct.testdsa_st, align 8
  %12 = alloca ptr, align 8
  %13 = alloca ptr, align 8
  %14 = alloca i32, align 4
  store i32 %0, ptr %3, align 4, !tbaa !4
  call void @llvm.lifetime.start.p0(i64 8, ptr %4) #11
  store ptr null, ptr %4, align 8, !tbaa !8
  call void @llvm.lifetime.start.p0(i64 8, ptr %5) #11
  call void @llvm.lifetime.start.p0(i64 8, ptr %6) #11
  call void @llvm.lifetime.start.p0(i64 8, ptr %7) #11
  call void @llvm.lifetime.start.p0(i64 8, ptr %8) #11
  call void @llvm.lifetime.start.p0(i64 8, ptr %9) #11
  call void @llvm.lifetime.start.p0(i64 8, ptr %10) #11
  call void @llvm.lifetime.start.p0(i64 64, ptr %11) #11
  call void @llvm.lifetime.start.p0(i64 8, ptr %12) #11
  store ptr null, ptr %12, align 8, !tbaa !11
  call void @llvm.lifetime.start.p0(i64 8, ptr %13) #11
  store ptr null, ptr %13, align 8, !tbaa !13
  %15 = load i32, ptr %3, align 4, !tbaa !4
  switch i32 %15, label %58 [
    i32 512, label %16
    i32 1024, label %30
    i32 2048, label %44
  ]

16:                                               ; preds = %1
  br label %17

17:                                               ; preds = %16
  %18 = getelementptr inbounds nuw %struct.testdsa_st, ptr %11, i32 0, i32 0
  store ptr @dsa512_priv, ptr %18, align 8, !tbaa !15
  %19 = getelementptr inbounds nuw %struct.testdsa_st, ptr %11, i32 0, i32 1
  store ptr @dsa512_pub, ptr %19, align 8, !tbaa !18
  %20 = getelementptr inbounds nuw %struct.testdsa_st, ptr %11, i32 0, i32 2
  store ptr @dsa512_p, ptr %20, align 8, !tbaa !19
  %21 = getelementptr inbounds nuw %struct.testdsa_st, ptr %11, i32 0, i32 3
  store ptr @dsa512_g, ptr %21, align 8, !tbaa !20
  %22 = getelementptr inbounds nuw %struct.testdsa_st, ptr %11, i32 0, i32 4
  store ptr @dsa512_q, ptr %22, align 8, !tbaa !21
  %23 = getelementptr inbounds nuw %struct.testdsa_st, ptr %11, i32 0, i32 5
  store i32 20, ptr %23, align 8, !tbaa !22
  %24 = getelementptr inbounds nuw %struct.testdsa_st, ptr %11, i32 0, i32 6
  store i32 65, ptr %24, align 4, !tbaa !23
  %25 = getelementptr inbounds nuw %struct.testdsa_st, ptr %11, i32 0, i32 7
  store i32 64, ptr %25, align 8, !tbaa !24
  %26 = getelementptr inbounds nuw %struct.testdsa_st, ptr %11, i32 0, i32 8
  store i32 64, ptr %26, align 4, !tbaa !25
  %27 = getelementptr inbounds nuw %struct.testdsa_st, ptr %11, i32 0, i32 9
  store i32 20, ptr %27, align 8, !tbaa !26
  br label %28

28:                                               ; preds = %17
  br label %29

29:                                               ; preds = %28
  br label %59

30:                                               ; preds = %1
  br label %31

31:                                               ; preds = %30
  %32 = getelementptr inbounds nuw %struct.testdsa_st, ptr %11, i32 0, i32 0
  store ptr @dsa1024_priv, ptr %32, align 8, !tbaa !15
  %33 = getelementptr inbounds nuw %struct.testdsa_st, ptr %11, i32 0, i32 1
  store ptr @dsa1024_pub, ptr %33, align 8, !tbaa !18
  %34 = getelementptr inbounds nuw %struct.testdsa_st, ptr %11, i32 0, i32 2
  store ptr @dsa1024_p, ptr %34, align 8, !tbaa !19
  %35 = getelementptr inbounds nuw %struct.testdsa_st, ptr %11, i32 0, i32 3
  store ptr @dsa1024_g, ptr %35, align 8, !tbaa !20
  %36 = getelementptr inbounds nuw %struct.testdsa_st, ptr %11, i32 0, i32 4
  store ptr @dsa1024_q, ptr %36, align 8, !tbaa !21
  %37 = getelementptr inbounds nuw %struct.testdsa_st, ptr %11, i32 0, i32 5
  store i32 20, ptr %37, align 8, !tbaa !22
  %38 = getelementptr inbounds nuw %struct.testdsa_st, ptr %11, i32 0, i32 6
  store i32 128, ptr %38, align 4, !tbaa !23
  %39 = getelementptr inbounds nuw %struct.testdsa_st, ptr %11, i32 0, i32 7
  store i32 128, ptr %39, align 8, !tbaa !24
  %40 = getelementptr inbounds nuw %struct.testdsa_st, ptr %11, i32 0, i32 8
  store i32 128, ptr %40, align 4, !tbaa !25
  %41 = getelementptr inbounds nuw %struct.testdsa_st, ptr %11, i32 0, i32 9
  store i32 20, ptr %41, align 8, !tbaa !26
  br label %42

42:                                               ; preds = %31
  br label %43

43:                                               ; preds = %42
  br label %59

44:                                               ; preds = %1
  br label %45

45:                                               ; preds = %44
  %46 = getelementptr inbounds nuw %struct.testdsa_st, ptr %11, i32 0, i32 0
  store ptr @dsa2048_priv, ptr %46, align 8, !tbaa !15
  %47 = getelementptr inbounds nuw %struct.testdsa_st, ptr %11, i32 0, i32 1
  store ptr @dsa2048_pub, ptr %47, align 8, !tbaa !18
  %48 = getelementptr inbounds nuw %struct.testdsa_st, ptr %11, i32 0, i32 2
  store ptr @dsa2048_p, ptr %48, align 8, !tbaa !19
  %49 = getelementptr inbounds nuw %struct.testdsa_st, ptr %11, i32 0, i32 3
  store ptr @dsa2048_g, ptr %49, align 8, !tbaa !20
  %50 = getelementptr inbounds nuw %struct.testdsa_st, ptr %11, i32 0, i32 4
  store ptr @dsa2048_q, ptr %50, align 8, !tbaa !21
  %51 = getelementptr inbounds nuw %struct.testdsa_st, ptr %11, i32 0, i32 5
  store i32 20, ptr %51, align 8, !tbaa !22
  %52 = getelementptr inbounds nuw %struct.testdsa_st, ptr %11, i32 0, i32 6
  store i32 256, ptr %52, align 4, !tbaa !23
  %53 = getelementptr inbounds nuw %struct.testdsa_st, ptr %11, i32 0, i32 7
  store i32 256, ptr %53, align 8, !tbaa !24
  %54 = getelementptr inbounds nuw %struct.testdsa_st, ptr %11, i32 0, i32 8
  store i32 256, ptr %54, align 4, !tbaa !25
  %55 = getelementptr inbounds nuw %struct.testdsa_st, ptr %11, i32 0, i32 9
  store i32 20, ptr %55, align 8, !tbaa !26
  br label %56

56:                                               ; preds = %45
  br label %57

57:                                               ; preds = %56
  br label %59

58:                                               ; preds = %1
  store ptr null, ptr %2, align 8
  store i32 1, ptr %14, align 4
  br label %158

59:                                               ; preds = %57, %43, %29
  %60 = call ptr @EVP_PKEY_CTX_new_from_name(ptr noundef null, ptr noundef @.str, ptr noundef null)
  store ptr %60, ptr %10, align 8, !tbaa !27
  %61 = icmp eq ptr %60, null
  br i1 %61, label %62, label %63

62:                                               ; preds = %59
  store ptr null, ptr %2, align 8
  store i32 1, ptr %14, align 4
  br label %158

63:                                               ; preds = %59
  %64 = getelementptr inbounds nuw %struct.testdsa_st, ptr %11, i32 0, i32 0
  %65 = load ptr, ptr %64, align 8, !tbaa !15
  %66 = getelementptr inbounds nuw %struct.testdsa_st, ptr %11, i32 0, i32 5
  %67 = load i32, ptr %66, align 8, !tbaa !22
  %68 = call ptr @BN_bin2bn(ptr noundef %65, i32 noundef %67, ptr noundef null)
  store ptr %68, ptr %5, align 8, !tbaa !29
  %69 = getelementptr inbounds nuw %struct.testdsa_st, ptr %11, i32 0, i32 1
  %70 = load ptr, ptr %69, align 8, !tbaa !18
  %71 = getelementptr inbounds nuw %struct.testdsa_st, ptr %11, i32 0, i32 6
  %72 = load i32, ptr %71, align 4, !tbaa !23
  %73 = call ptr @BN_bin2bn(ptr noundef %70, i32 noundef %72, ptr noundef null)
  store ptr %73, ptr %6, align 8, !tbaa !29
  %74 = getelementptr inbounds nuw %struct.testdsa_st, ptr %11, i32 0, i32 2
  %75 = load ptr, ptr %74, align 8, !tbaa !19
  %76 = getelementptr inbounds nuw %struct.testdsa_st, ptr %11, i32 0, i32 7
  %77 = load i32, ptr %76, align 8, !tbaa !24
  %78 = call ptr @BN_bin2bn(ptr noundef %75, i32 noundef %77, ptr noundef null)
  store ptr %78, ptr %7, align 8, !tbaa !29
  %79 = getelementptr inbounds nuw %struct.testdsa_st, ptr %11, i32 0, i32 4
  %80 = load ptr, ptr %79, align 8, !tbaa !21
  %81 = getelementptr inbounds nuw %struct.testdsa_st, ptr %11, i32 0, i32 9
  %82 = load i32, ptr %81, align 8, !tbaa !26
  %83 = call ptr @BN_bin2bn(ptr noundef %80, i32 noundef %82, ptr noundef null)
  store ptr %83, ptr %8, align 8, !tbaa !29
  %84 = getelementptr inbounds nuw %struct.testdsa_st, ptr %11, i32 0, i32 3
  %85 = load ptr, ptr %84, align 8, !tbaa !20
  %86 = getelementptr inbounds nuw %struct.testdsa_st, ptr %11, i32 0, i32 8
  %87 = load i32, ptr %86, align 4, !tbaa !25
  %88 = call ptr @BN_bin2bn(ptr noundef %85, i32 noundef %87, ptr noundef null)
  store ptr %88, ptr %9, align 8, !tbaa !29
  %89 = load ptr, ptr %5, align 8, !tbaa !29
  %90 = icmp eq ptr %89, null
  br i1 %90, label %103, label %91

91:                                               ; preds = %63
  %92 = load ptr, ptr %6, align 8, !tbaa !29
  %93 = icmp eq ptr %92, null
  br i1 %93, label %103, label %94

94:                                               ; preds = %91
  %95 = load ptr, ptr %7, align 8, !tbaa !29
  %96 = icmp eq ptr %95, null
  br i1 %96, label %103, label %97

97:                                               ; preds = %94
  %98 = load ptr, ptr %8, align 8, !tbaa !29
  %99 = icmp eq ptr %98, null
  br i1 %99, label %103, label %100

100:                                              ; preds = %97
  %101 = load ptr, ptr %9, align 8, !tbaa !29
  %102 = icmp eq ptr %101, null
  br i1 %102, label %103, label %104

103:                                              ; preds = %100, %97, %94, %91, %63
  br label %148

104:                                              ; preds = %100
  %105 = call ptr @OSSL_PARAM_BLD_new()
  store ptr %105, ptr %12, align 8, !tbaa !11
  %106 = icmp eq ptr %105, null
  br i1 %106, label %136, label %107

107:                                              ; preds = %104
  %108 = load ptr, ptr %12, align 8, !tbaa !11
  %109 = load ptr, ptr %7, align 8, !tbaa !29
  %110 = call i32 @OSSL_PARAM_BLD_push_BN(ptr noundef %108, ptr noundef @.str.1, ptr noundef %109)
  %111 = icmp ne i32 %110, 0
  br i1 %111, label %112, label %136

112:                                              ; preds = %107
  %113 = load ptr, ptr %12, align 8, !tbaa !11
  %114 = load ptr, ptr %8, align 8, !tbaa !29
  %115 = call i32 @OSSL_PARAM_BLD_push_BN(ptr noundef %113, ptr noundef @.str.2, ptr noundef %114)
  %116 = icmp ne i32 %115, 0
  br i1 %116, label %117, label %136

117:                                              ; preds = %112
  %118 = load ptr, ptr %12, align 8, !tbaa !11
  %119 = load ptr, ptr %9, align 8, !tbaa !29
  %120 = call i32 @OSSL_PARAM_BLD_push_BN(ptr noundef %118, ptr noundef @.str.3, ptr noundef %119)
  %121 = icmp ne i32 %120, 0
  br i1 %121, label %122, label %136

122:                                              ; preds = %117
  %123 = load ptr, ptr %12, align 8, !tbaa !11
  %124 = load ptr, ptr %5, align 8, !tbaa !29
  %125 = call i32 @OSSL_PARAM_BLD_push_BN(ptr noundef %123, ptr noundef @.str.4, ptr noundef %124)
  %126 = icmp ne i32 %125, 0
  br i1 %126, label %127, label %136

127:                                              ; preds = %122
  %128 = load ptr, ptr %12, align 8, !tbaa !11
  %129 = load ptr, ptr %6, align 8, !tbaa !29
  %130 = call i32 @OSSL_PARAM_BLD_push_BN(ptr noundef %128, ptr noundef @.str.5, ptr noundef %129)
  %131 = icmp ne i32 %130, 0
  br i1 %131, label %132, label %136

132:                                              ; preds = %127
  %133 = load ptr, ptr %12, align 8, !tbaa !11
  %134 = call ptr @OSSL_PARAM_BLD_to_param(ptr noundef %133)
  store ptr %134, ptr %13, align 8, !tbaa !13
  %135 = icmp eq ptr %134, null
  br i1 %135, label %136, label %137

136:                                              ; preds = %132, %127, %122, %117, %112, %107, %104
  br label %148

137:                                              ; preds = %132
  %138 = load ptr, ptr %10, align 8, !tbaa !27
  %139 = call i32 @EVP_PKEY_fromdata_init(ptr noundef %138)
  %140 = icmp sle i32 %139, 0
  br i1 %140, label %146, label %141

141:                                              ; preds = %137
  %142 = load ptr, ptr %10, align 8, !tbaa !27
  %143 = load ptr, ptr %13, align 8, !tbaa !13
  %144 = call i32 @EVP_PKEY_fromdata(ptr noundef %142, ptr noundef %4, i32 noundef 135, ptr noundef %143)
  %145 = icmp sle i32 %144, 0
  br i1 %145, label %146, label %147

146:                                              ; preds = %141, %137
  store ptr null, ptr %4, align 8, !tbaa !8
  br label %147

147:                                              ; preds = %146, %141
  br label %148

148:                                              ; preds = %147, %136, %103
  %149 = load ptr, ptr %13, align 8, !tbaa !13
  call void @OSSL_PARAM_free(ptr noundef %149)
  %150 = load ptr, ptr %12, align 8, !tbaa !11
  call void @OSSL_PARAM_BLD_free(ptr noundef %150)
  %151 = load ptr, ptr %5, align 8, !tbaa !29
  call void @BN_free(ptr noundef %151)
  %152 = load ptr, ptr %6, align 8, !tbaa !29
  call void @BN_free(ptr noundef %152)
  %153 = load ptr, ptr %7, align 8, !tbaa !29
  call void @BN_free(ptr noundef %153)
  %154 = load ptr, ptr %8, align 8, !tbaa !29
  call void @BN_free(ptr noundef %154)
  %155 = load ptr, ptr %9, align 8, !tbaa !29
  call void @BN_free(ptr noundef %155)
  %156 = load ptr, ptr %10, align 8, !tbaa !27
  call void @EVP_PKEY_CTX_free(ptr noundef %156)
  %157 = load ptr, ptr %4, align 8, !tbaa !8
  store ptr %157, ptr %2, align 8
  store i32 1, ptr %14, align 4
  br label %158

158:                                              ; preds = %148, %62, %58
  call void @llvm.lifetime.end.p0(i64 8, ptr %13) #11
  call void @llvm.lifetime.end.p0(i64 8, ptr %12) #11
  call void @llvm.lifetime.end.p0(i64 64, ptr %11) #11
  call void @llvm.lifetime.end.p0(i64 8, ptr %10) #11
  call void @llvm.lifetime.end.p0(i64 8, ptr %9) #11
  call void @llvm.lifetime.end.p0(i64 8, ptr %8) #11
  call void @llvm.lifetime.end.p0(i64 8, ptr %7) #11
  call void @llvm.lifetime.end.p0(i64 8, ptr %6) #11
  call void @llvm.lifetime.end.p0(i64 8, ptr %5) #11
  call void @llvm.lifetime.end.p0(i64 8, ptr %4) #11
  %159 = load ptr, ptr %2, align 8
  ret ptr %159
}