; Function Attrs: nounwind uwtable
define dso_local ptr @get_dsa(i32 noundef %0) local_unnamed_addr #0 {
  %2 = alloca ptr, align 8
  call void @llvm.lifetime.start.p0(i64 8, ptr nonnull %2) #14
  store ptr null, ptr %2, align 8, !tbaa !4
  switch i32 %0, label %44 [
    i32 512, label %5
    i32 1024, label %3
    i32 2048, label %4
  ]

3:                                                ; preds = %1
  br label %5

4:                                                ; preds = %1
  br label %5

5:                                                ; preds = %1, %4, %3
  %.sroa.30.0 = phi i32 [ 256, %4 ], [ 128, %3 ], [ 64, %1 ]
  %.sroa.26.0 = phi i32 [ 256, %4 ], [ 128, %3 ], [ 65, %1 ]
  %.sroa.18.0 = phi ptr [ @dsa2048_q, %4 ], [ @dsa1024_q, %3 ], [ @dsa512_q, %1 ]
  %.sroa.14.0 = phi ptr [ @dsa2048_g, %4 ], [ @dsa1024_g, %3 ], [ @dsa512_g, %1 ]
  %.sroa.10.0 = phi ptr [ @dsa2048_p, %4 ], [ @dsa1024_p, %3 ], [ @dsa512_p, %1 ]
  %.sroa.6.0 = phi ptr [ @dsa2048_pub, %4 ], [ @dsa1024_pub, %3 ], [ @dsa512_pub, %1 ]
  %.sroa.0.0 = phi ptr [ @dsa2048_priv, %4 ], [ @dsa1024_priv, %3 ], [ @dsa512_priv, %1 ]
  %6 = tail call ptr @EVP_PKEY_CTX_new_from_name(ptr noundef null, ptr noundef nonnull @.str, ptr noundef null) #14
  %7 = icmp eq ptr %6, null
  br i1 %7, label %44, label %8

8:                                                ; preds = %5
  %9 = tail call ptr @BN_bin2bn(ptr noundef nonnull %.sroa.0.0, i32 noundef 20, ptr noundef null) #14
  %10 = tail call ptr @BN_bin2bn(ptr noundef nonnull %.sroa.6.0, i32 noundef %.sroa.26.0, ptr noundef null) #14
  %11 = tail call ptr @BN_bin2bn(ptr noundef nonnull %.sroa.10.0, i32 noundef %.sroa.30.0, ptr noundef null) #14
  %12 = tail call ptr @BN_bin2bn(ptr noundef nonnull %.sroa.18.0, i32 noundef 20, ptr noundef null) #14
  %13 = tail call ptr @BN_bin2bn(ptr noundef nonnull %.sroa.14.0, i32 noundef %.sroa.30.0, ptr noundef null) #14
  %14 = icmp eq ptr %9, null
  %15 = icmp eq ptr %10, null
  %or.cond = select i1 %14, i1 true, i1 %15
  %16 = icmp eq ptr %11, null
  %or.cond3 = select i1 %or.cond, i1 true, i1 %16
  %17 = icmp eq ptr %12, null
  %or.cond5 = select i1 %or.cond3, i1 true, i1 %17
  %18 = icmp eq ptr %13, null
  %or.cond7 = select i1 %or.cond5, i1 true, i1 %18
  br i1 %or.cond7, label %42, label %19

19:                                               ; preds = %8
  %20 = tail call ptr @OSSL_PARAM_BLD_new() #14
  %21 = icmp eq ptr %20, null
  br i1 %21, label %42, label %22

22:                                               ; preds = %19
  %23 = tail call i32 @OSSL_PARAM_BLD_push_BN(ptr noundef nonnull %20, ptr noundef nonnull @.str.1, ptr noundef nonnull %11) #14
  %.not = icmp eq i32 %23, 0
  br i1 %.not, label %42, label %24

24:                                               ; preds = %22
  %25 = tail call i32 @OSSL_PARAM_BLD_push_BN(ptr noundef nonnull %20, ptr noundef nonnull @.str.2, ptr noundef nonnull %12) #14
  %.not45 = icmp eq i32 %25, 0
  br i1 %.not45, label %42, label %26

26:                                               ; preds = %24
  %27 = tail call i32 @OSSL_PARAM_BLD_push_BN(ptr noundef nonnull %20, ptr noundef nonnull @.str.3, ptr noundef nonnull %13) #14
  %.not46 = icmp eq i32 %27, 0
  br i1 %.not46, label %42, label %28

28:                                               ; preds = %26
  %29 = tail call i32 @OSSL_PARAM_BLD_push_BN(ptr noundef nonnull %20, ptr noundef nonnull @.str.4, ptr noundef nonnull %9) #14
  %.not47 = icmp eq i32 %29, 0
  br i1 %.not47, label %42, label %30

30:                                               ; preds = %28
  %31 = tail call i32 @OSSL_PARAM_BLD_push_BN(ptr noundef nonnull %20, ptr noundef nonnull @.str.5, ptr noundef nonnull %10) #14
  %.not48 = icmp eq i32 %31, 0
  br i1 %.not48, label %42, label %32

32:                                               ; preds = %30
  %33 = tail call ptr @OSSL_PARAM_BLD_to_param(ptr noundef nonnull %20) #14
  %34 = icmp eq ptr %33, null
  br i1 %34, label %42, label %35

35:                                               ; preds = %32
  %36 = tail call i32 @EVP_PKEY_fromdata_init(ptr noundef nonnull %6) #14
  %37 = icmp slt i32 %36, 1
  br i1 %37, label %41, label %38

38:                                               ; preds = %35
  %39 = call i32 @EVP_PKEY_fromdata(ptr noundef nonnull %6, ptr noundef nonnull %2, i32 noundef 135, ptr noundef nonnull %33) #14
  %40 = icmp slt i32 %39, 1
  br i1 %40, label %41, label %42

41:                                               ; preds = %38, %35
  store ptr null, ptr %2, align 8, !tbaa !4
  br label %42

42:                                               ; preds = %38, %41, %19, %22, %24, %26, %28, %30, %32, %8
  %.035 = phi ptr [ null, %8 ], [ null, %19 ], [ %20, %32 ], [ %20, %41 ], [ %20, %38 ], [ %20, %30 ], [ %20, %28 ], [ %20, %26 ], [ %20, %24 ], [ %20, %22 ]
  %.0 = phi ptr [ null, %8 ], [ null, %19 ], [ null, %32 ], [ %33, %41 ], [ %33, %38 ], [ null, %30 ], [ null, %28 ], [ null, %26 ], [ null, %24 ], [ null, %22 ]
  call void @OSSL_PARAM_free(ptr noundef %.0) #14
  call void @OSSL_PARAM_BLD_free(ptr noundef %.035) #14
  call void @BN_free(ptr noundef %9) #14
  call void @BN_free(ptr noundef %10) #14
  call void @BN_free(ptr noundef %11) #14
  call void @BN_free(ptr noundef %12) #14
  call void @BN_free(ptr noundef %13) #14
  call void @EVP_PKEY_CTX_free(ptr noundef nonnull %6) #14
  %43 = load ptr, ptr %2, align 8, !tbaa !4
  br label %44

44:                                               ; preds = %5, %1, %42
  %.036 = phi ptr [ %43, %42 ], [ null, %1 ], [ null, %5 ]
  call void @llvm.lifetime.end.p0(i64 8, ptr nonnull %2) #14
  ret ptr %.036
}